; ModuleID = '26/943.c'
source_filename = "26/943.c"
target datalayout = "e-m:e-p270:32:32-p271:32:32-p272:64:64-i64:64-f80:128-n8:16:32:64-S128"
target triple = "x86_64-pc-linux-gnu"

; Function Attrs: noinline nounwind uwtable
define dso_local i32 @main() #0 {
  %1 = alloca i32, align 4
  %2 = alloca [101 x i8], align 16
  %3 = alloca [101 x i8], align 16
  %4 = alloca i32, align 4
  %5 = alloca i32, align 4
  store i32 0, i32* %1, align 4
  store i32 0, i32* %4, align 4
  %6 = getelementptr inbounds [101 x i8], [101 x i8]* %2, i64 0, i64 0
  %7 = call i32 (i8*, ...) bitcast (i32 (...)* @gets to i32 (i8*, ...)*)(i8* %6)
  store i32 0, i32* %5, align 4
  br label %8

8:                                                ; preds = %42, %0
  %9 = load i32, i32* %5, align 4
  %10 = sub nsw i32 %9, 1
  %11 = sext i32 %10 to i64
  %12 = getelementptr inbounds [101 x i8], [101 x i8]* %2, i64 0, i64 %11
  %13 = load i8, i8* %12, align 1
  %14 = icmp ne i8 %13, 0
  br i1 %14, label %15, label %45

15:                                               ; preds = %8
  %16 = load i32, i32* %5, align 4
  %17 = sext i32 %16 to i64
  %18 = getelementptr inbounds [101 x i8], [101 x i8]* %2, i64 0, i64 %17
  %19 = load i8, i8* %18, align 1
  %20 = sext i8 %19 to i32
  %21 = icmp eq i32 %20, 32
  br i1 %21, label %22, label %31

22:                                               ; preds = %15
  %23 = load i32, i32* %5, align 4
  %24 = add nsw i32 %23, 1
  %25 = sext i32 %24 to i64
  %26 = getelementptr inbounds [101 x i8], [101 x i8]* %2, i64 0, i64 %25
  %27 = load i8, i8* %26, align 1
  %28 = sext i8 %27 to i32
  %29 = icmp eq i32 %28, 32
  br i1 %29, label %30, label %31

30:                                               ; preds = %22
  br label %42

31:                                               ; preds = %22, %15
  %32 = load i32, i32* %5, align 4
  %33 = sext i32 %32 to i64
  %34 = getelementptr inbounds [101 x i8], [101 x i8]* %2, i64 0, i64 %33
  %35 = load i8, i8* %34, align 1
  %36 = load i32, i32* %4, align 4
  %37 = sext i32 %36 to i64
  %38 = getelementptr inbounds [101 x i8], [101 x i8]* %3, i64 0, i64 %37
  store i8 %35, i8* %38, align 1
  %39 = load i32, i32* %4, align 4
  %40 = add nsw i32 %39, 1
  store i32 %40, i32* %4, align 4
  br label %41

41:                                               ; preds = %31
  br label %42

42:                                               ; preds = %41, %30
  %43 = load i32, i32* %5, align 4
  %44 = add nsw i32 %43, 1
  store i32 %44, i32* %5, align 4
  br label %8

45:                                               ; preds = %8
  %46 = getelementptr inbounds [101 x i8], [101 x i8]* %3, i64 0, i64 0
  %47 = call i32 @puts(i8* %46)
  ret i32 0
}

declare dso_local i32 @gets(...) #1

declare dso_local i32 @puts(i8*) #1


!llvm.module.flags = !{!0}
!llvm.ident = !{!1}

!0 = !{i32 1, !"wchar_size", i32 4}
!1 = !{!"clang version 10.0.0-4ubuntu1 "}
