; ModuleID = 'source-C-CXX/25/943.c'
source_filename = "source-C-CXX/25/943.c"
target datalayout = "e-m:e-p270:32:32-p271:32:32-p272:64:64-i64:64-f80:128-n8:16:32:64-S128"
target triple = "x86_64-pc-linux-gnu"

; Function Attrs: nounwind sspstrong uwtable
define dso_local i32 @main() local_unnamed_addr #0 {
  %1 = alloca [101 x i8], align 16
  %2 = alloca [101 x i8], align 16
  %3 = getelementptr inbounds [101 x i8], [101 x i8]* %1, i64 0, i64 0
  call void @llvm.lifetime.start.p0i8(i64 101, i8* nonnull %3) #4
  %4 = getelementptr inbounds [101 x i8], [101 x i8]* %2, i64 0, i64 0
  call void @llvm.lifetime.start.p0i8(i64 101, i8* nonnull %4) #4
  %5 = call i32 (i8*, ...) bitcast (i32 (...)* @gets to i32 (i8*, ...)*)(i8* nonnull %3) #4
  %6 = getelementptr inbounds [101 x i8], [101 x i8]* %1, i64 0, i64 -1
  %7 = load i8, i8* %6, align 1, !tbaa !5
  %8 = icmp eq i8 %7, 0
  br i1 %8, label %27, label %9

9:                                                ; preds = %0, %24
  %10 = phi i64 [ %15, %24 ], [ 0, %0 ]
  %11 = phi i32 [ %25, %24 ], [ 0, %0 ]
  %12 = getelementptr inbounds [101 x i8], [101 x i8]* %1, i64 0, i64 %10
  %13 = load i8, i8* %12, align 1, !tbaa !5
  %14 = icmp eq i8 %13, 32
  %15 = add nuw i64 %10, 1
  br i1 %14, label %16, label %20

16:                                               ; preds = %9
  %17 = getelementptr inbounds [101 x i8], [101 x i8]* %1, i64 0, i64 %15
  %18 = load i8, i8* %17, align 1, !tbaa !5
  %19 = icmp eq i8 %18, 32
  br i1 %19, label %24, label %20

20:                                               ; preds = %9, %16
  %21 = sext i32 %11 to i64
  %22 = getelementptr inbounds [101 x i8], [101 x i8]* %2, i64 0, i64 %21
  store i8 %13, i8* %22, align 1, !tbaa !5
  %23 = add nsw i32 %11, 1
  br label %24

24:                                               ; preds = %16, %20
  %25 = phi i32 [ %11, %16 ], [ %23, %20 ]
  %26 = icmp eq i8 %13, 0
  br i1 %26, label %27, label %9, !llvm.loop !8

27:                                               ; preds = %24, %0
  %28 = call i32 @puts(i8* nonnull %4)
  call void @llvm.lifetime.end.p0i8(i64 101, i8* nonnull %4) #4
  call void @llvm.lifetime.end.p0i8(i64 101, i8* nonnull %3) #4
  ret i32 0
}

; Function Attrs: argmemonly mustprogress nofree nosync nounwind willreturn
declare void @llvm.lifetime.start.p0i8(i64 immarg, i8* nocapture) #1

declare i32 @gets(...) local_unnamed_addr #2

; Function Attrs: nofree nounwind
declare noundef i32 @puts(i8* nocapture noundef readonly) local_unnamed_addr #3

; Function Attrs: argmemonly mustprogress nofree nosync nounwind willreturn
declare void @llvm.lifetime.end.p0i8(i64 immarg, i8* nocapture) #1


!llvm.module.flags = !{!0, !1, !2, !3}
!llvm.ident = !{!4}

!0 = !{i32 1, !"wchar_size", i32 4}
!1 = !{i32 7, !"PIC Level", i32 2}
!2 = !{i32 7, !"PIE Level", i32 2}
!3 = !{i32 7, !"uwtable", i32 1}
!4 = !{!"clang version 13.0.0"}
!5 = !{!6, !6, i64 0}
!6 = !{!"omnipotent char", !7, i64 0}
!7 = !{!"Simple C/C++ TBAA"}
!8 = distinct !{!8, !9}
!9 = !{!"llvm.loop.mustprogress"}
